; Function Attrs: mustprogress uwtable
define internal fastcc void @_ZN4absl19str_format_internal12_GLOBAL__N_119AllFlagCombinationsB5cxx11Ev(ptr noalias align 8 %agg.result) unnamed_addr #3 personality ptr @__gxx_personality_v0 {
entry:
  %flag_set = alloca %"class.std::__cxx11::basic_string", align 8
  tail call void @llvm.memset.p0.i64(ptr noundef nonnull align 8 dereferenceable(24) %agg.result, i8 0, i64 24, i1 false)
  %_M_finish.i = getelementptr inbounds i8, ptr %agg.result, i64 8
  %_M_end_of_storage.i = getelementptr inbounds i8, ptr %agg.result, i64 16
  br label %for.body

for.body:                                         ; preds = %entry, %invoke.cont10
  %fsi.08 = phi i64 [ 0, %entry ], [ %inc12, %invoke.cont10 ]
  call void @_ZNSt7__cxx1112basic_stringIcSt11char_traitsIcESaIcEEC1Ev(ptr noundef nonnull align 8 dereferenceable(32) %flag_set) #28
  br label %for.body6

for.body6:                                        ; preds = %for.body, %for.inc
  %fi.07 = phi i64 [ 0, %for.body ], [ %inc, %for.inc ]
  %shl7 = shl nuw nsw i64 1, %fi.07
  %and = and i64 %shl7, %fsi.08
  %tobool.not = icmp eq i64 %and, 0
  br i1 %tobool.not, label %for.inc, label %if.then

if.then:                                          ; preds = %for.body6
  %arrayidx = getelementptr inbounds [5 x i8], ptr @__const._ZN4absl19str_format_internal12_GLOBAL__N_119AllFlagCombinationsB5cxx11Ev.kFlags, i64 0, i64 %fi.07
  %0 = load i8, ptr %arrayidx, align 1
  %call9 = invoke noundef nonnull align 8 dereferenceable(32) ptr @_ZNSt7__cxx1112basic_stringIcSt11char_traitsIcESaIcEEpLEc(ptr noundef nonnull align 8 dereferenceable(32) %flag_set, i8 noundef signext %0)
          to label %for.inc unwind label %lpad2.loopexit

lpad2.loopexit:                                   ; preds = %if.then
  %lpad.loopexit = landingpad { ptr, i32 }
          cleanup
  br label %lpad2

lpad2.loopexit.split-lp:                          ; preds = %if.then.i, %if.else.i
  %lpad.loopexit.split-lp = landingpad { ptr, i32 }
          cleanup
  br label %lpad2

lpad2:                                            ; preds = %lpad2.loopexit.split-lp, %lpad2.loopexit
  %lpad.phi = phi { ptr, i32 } [ %lpad.loopexit, %lpad2.loopexit ], [ %lpad.loopexit.split-lp, %lpad2.loopexit.split-lp ]
  call void @_ZNSt7__cxx1112basic_stringIcSt11char_traitsIcESaIcEED1Ev(ptr noundef nonnull align 8 dereferenceable(32) %flag_set) #28
  call void @_ZNSt6vectorINSt7__cxx1112basic_stringIcSt11char_traitsIcESaIcEEESaIS5_EED2Ev(ptr noundef nonnull align 8 dereferenceable(24) %agg.result) #28
  resume { ptr, i32 } %lpad.phi

for.inc:                                          ; preds = %for.body6, %if.then
  %inc = add nuw nsw i64 %fi.07, 1
  %exitcond.not = icmp eq i64 %inc, 5
  br i1 %exitcond.not, label %for.end, label %for.body6, !llvm.loop !2013

for.end:                                          ; preds = %for.inc
  %1 = load ptr, ptr %_M_finish.i, align 8
  %2 = load ptr, ptr %_M_end_of_storage.i, align 8
  %cmp.not.i = icmp eq ptr %1, %2
  br i1 %cmp.not.i, label %if.else.i, label %if.then.i

if.then.i:                                        ; preds = %for.end
  invoke void @_ZNSt7__cxx1112basic_stringIcSt11char_traitsIcESaIcEEC1ERKS4_(ptr noundef nonnull align 8 dereferenceable(32) %1, ptr noundef nonnull align 8 dereferenceable(32) %flag_set)
          to label %.noexc unwind label %lpad2.loopexit.split-lp

.noexc:                                           ; preds = %if.then.i
  %3 = load ptr, ptr %_M_finish.i, align 8
  %incdec.ptr.i = getelementptr inbounds i8, ptr %3, i64 32
  store ptr %incdec.ptr.i, ptr %_M_finish.i, align 8
  br label %invoke.cont10

if.else.i:                                        ; preds = %for.end
  invoke void @_ZNSt6vectorINSt7__cxx1112basic_stringIcSt11char_traitsIcESaIcEEESaIS5_EE17_M_realloc_insertIJRKS5_EEEvN9__gnu_cxx17__normal_iteratorIPS5_S7_EEDpOT_(ptr noundef nonnull align 8 dereferenceable(24) %agg.result, ptr %1, ptr noundef nonnull align 8 dereferenceable(32) %flag_set)
          to label %invoke.cont10 unwind label %lpad2.loopexit.split-lp

invoke.cont10:                                    ; preds = %.noexc, %if.else.i
  call void @_ZNSt7__cxx1112basic_stringIcSt11char_traitsIcESaIcEED1Ev(ptr noundef nonnull align 8 dereferenceable(32) %flag_set) #28
  %inc12 = add nuw nsw i64 %fsi.08, 1
  %exitcond9.not = icmp eq i64 %inc12, 32
  br i1 %exitcond9.not, label %nrvo.skipdtor, label %for.body, !llvm.loop !2014

nrvo.skipdtor:                                    ; preds = %invoke.cont10
  ret void
}